; Function Attrs: mustprogress nounwind uwtable
define internal fastcc void @_ZL19getReciprocalOpNameB5cxx11bN4llvm3EVTE(ptr dead_on_unwind noalias writable align 8 %0, i1 noundef zeroext %1, i16 %2, ptr %3) unnamed_addr #0 {
  %5 = alloca %"struct.llvm::EVT", align 8
  %6 = alloca %"class.std::allocator.35", align 1
  store i16 %2, ptr %5, align 8
  %7 = getelementptr inbounds nuw i8, ptr %5, i64 8
  store ptr %3, ptr %7, align 8
  %.not.i = icmp eq i16 %2, 0
  br i1 %.not.i, label %10, label %8

8:                                                ; preds = %4
  %9 = add i16 %2, -17
  %spec.select.i.i = icmp ult i16 %9, 173
  br label %_ZNK4llvm3EVT8isVectorEv.exit

10:                                               ; preds = %4
  %11 = call noundef zeroext i1 @_ZNK4llvm3EVT16isExtendedVectorEv(ptr noundef nonnull align 8 dereferenceable(16) %5) #27
  br label %_ZNK4llvm3EVT8isVectorEv.exit

_ZNK4llvm3EVT8isVectorEv.exit:                    ; preds = %8, %10
  %12 = phi i1 [ %spec.select.i.i, %8 ], [ %11, %10 ]
  %13 = select i1 %12, ptr @.str.42, ptr @.str.32
  call void @_ZNSaIcEC1Ev(ptr noundef nonnull align 1 dereferenceable(1) %6) #26
  %14 = call noundef ptr @_ZNSt7__cxx1112basic_stringIcSt11char_traitsIcESaIcEE13_M_local_dataEv(ptr noundef nonnull align 8 dereferenceable(32) %0) #26
  call void @_ZNSt7__cxx1112basic_stringIcSt11char_traitsIcESaIcEE12_Alloc_hiderC1EPcRKS3_(ptr noundef nonnull align 8 dereferenceable(8) %0, ptr noundef %14, ptr noundef nonnull align 1 dereferenceable(1) %6) #26
  %15 = select i1 %12, i64 4, i64 0
  %16 = getelementptr inbounds i8, ptr %13, i64 %15
  call void @_ZNSt7__cxx1112basic_stringIcSt11char_traitsIcESaIcEE12_M_constructIPKcEEvT_S8_St20forward_iterator_tag(ptr noundef nonnull align 8 dereferenceable(32) %0, ptr noundef nonnull %13, ptr noundef nonnull %16)
  call void @_ZNSaIcED1Ev(ptr noundef nonnull align 1 dereferenceable(1) %6) #26
  %17 = select i1 %1, ptr @.str.43, ptr @.str.44
  %18 = call noundef nonnull align 8 dereferenceable(32) ptr @_ZNSt7__cxx1112basic_stringIcSt11char_traitsIcESaIcEEpLEPKc(ptr noundef nonnull align 8 dereferenceable(32) %0, ptr noundef nonnull %17) #26
  %19 = load i16, ptr %5, align 8
  %.not.i.i = icmp eq i16 %19, 0
  br i1 %.not.i.i, label %_ZNK4llvm3EVT8isVectorEv.exit.i, label %20

20:                                               ; preds = %_ZNK4llvm3EVT8isVectorEv.exit
  %21 = add i16 %19, -17
  %spec.select.i.i.i = icmp ult i16 %21, 173
  br i1 %spec.select.i.i.i, label %23, label %_ZNK4llvm3EVT13getScalarTypeEv.exit

_ZNK4llvm3EVT8isVectorEv.exit.i:                  ; preds = %_ZNK4llvm3EVT8isVectorEv.exit
  %22 = call noundef zeroext i1 @_ZNK4llvm3EVT16isExtendedVectorEv(ptr noundef nonnull align 8 dereferenceable(16) %5) #27
  br i1 %22, label %28, label %_ZNK4llvm3EVT8isVectorEv.exit.i10

23:                                               ; preds = %20
  %24 = zext nneg i16 %19 to i64
  %25 = add nsw i64 %24, -1
  %26 = getelementptr inbounds [240 x i16], ptr @_ZZNK4llvm3MVT20getVectorElementTypeEvE10EltTyTable, i64 0, i64 %25
  %27 = load i16, ptr %26, align 2
  br label %_ZNK4llvm3EVT13getScalarTypeEv.exit

28:                                               ; preds = %_ZNK4llvm3EVT8isVectorEv.exit.i
  %29 = call { i16, ptr } @_ZNK4llvm3EVT28getExtendedVectorElementTypeEv(ptr noundef nonnull align 8 dereferenceable(16) %5) #26
  %30 = extractvalue { i16, ptr } %29, 0
  br label %_ZNK4llvm3EVT13getScalarTypeEv.exit

_ZNK4llvm3EVT13getScalarTypeEv.exit:              ; preds = %20, %23, %28
  %.sroa.0.0.i = phi i16 [ %27, %23 ], [ %30, %28 ], [ %19, %20 ]
  %.not.i.i1 = icmp eq i16 %.sroa.0.0.i, 13
  br i1 %.not.i.i1, label %42, label %_ZNK4llvm3EVTeqES0_.exit

_ZNK4llvm3EVTeqES0_.exit:                         ; preds = %_ZNK4llvm3EVT13getScalarTypeEv.exit
  %.pr = load i16, ptr %5, align 8
  %.not.i.i2 = icmp eq i16 %.pr, 0
  br i1 %.not.i.i2, label %_ZNK4llvm3EVT8isVectorEv.exit.i10, label %31

31:                                               ; preds = %_ZNK4llvm3EVTeqES0_.exit
  %32 = add i16 %.pr, -17
  %spec.select.i.i.i3 = icmp ult i16 %32, 173
  br i1 %spec.select.i.i.i3, label %34, label %_ZNK4llvm3EVT13getScalarTypeEv.exit11

_ZNK4llvm3EVT8isVectorEv.exit.i10:                ; preds = %_ZNK4llvm3EVT8isVectorEv.exit.i, %_ZNK4llvm3EVTeqES0_.exit
  %33 = call noundef zeroext i1 @_ZNK4llvm3EVT16isExtendedVectorEv(ptr noundef nonnull align 8 dereferenceable(16) %5) #27
  br i1 %33, label %39, label %_ZNK4llvm3EVTeqES0_.exit14

34:                                               ; preds = %31
  %35 = zext nneg i16 %.pr to i64
  %36 = add nsw i64 %35, -1
  %37 = getelementptr inbounds [240 x i16], ptr @_ZZNK4llvm3MVT20getVectorElementTypeEvE10EltTyTable, i64 0, i64 %36
  %38 = load i16, ptr %37, align 2
  br label %_ZNK4llvm3EVT13getScalarTypeEv.exit11

39:                                               ; preds = %_ZNK4llvm3EVT8isVectorEv.exit.i10
  %40 = call { i16, ptr } @_ZNK4llvm3EVT28getExtendedVectorElementTypeEv(ptr noundef nonnull align 8 dereferenceable(16) %5) #26
  %41 = extractvalue { i16, ptr } %40, 0
  br label %_ZNK4llvm3EVT13getScalarTypeEv.exit11

_ZNK4llvm3EVT13getScalarTypeEv.exit11:            ; preds = %31, %34, %39
  %.sroa.0.0.i6 = phi i16 [ %38, %34 ], [ %41, %39 ], [ %.pr, %31 ]
  %.not.i.i12 = icmp eq i16 %.sroa.0.0.i6, 11
  br i1 %.not.i.i12, label %42, label %_ZNK4llvm3EVTeqES0_.exit14

_ZNK4llvm3EVTeqES0_.exit14:                       ; preds = %_ZNK4llvm3EVT8isVectorEv.exit.i10, %_ZNK4llvm3EVT13getScalarTypeEv.exit11
  br label %42

42:                                               ; preds = %_ZNK4llvm3EVT13getScalarTypeEv.exit11, %_ZNK4llvm3EVT13getScalarTypeEv.exit, %_ZNK4llvm3EVTeqES0_.exit14
  %.str.45.sink = phi ptr [ @.str.47, %_ZNK4llvm3EVTeqES0_.exit14 ], [ @.str.45, %_ZNK4llvm3EVT13getScalarTypeEv.exit ], [ @.str.46, %_ZNK4llvm3EVT13getScalarTypeEv.exit11 ]
  %43 = call noundef nonnull align 8 dereferenceable(32) ptr @_ZNSt7__cxx1112basic_stringIcSt11char_traitsIcESaIcEEpLEPKc(ptr noundef nonnull align 8 dereferenceable(32) %0, ptr noundef nonnull %.str.45.sink) #26
  ret void
}